target datalayout = "e-m:e-p270:32:32-p271:32:32-p272:64:64-i64:64-i128:128-f80:128-n8:16:32:64-S128"
target triple = "x86_64-pc-linux-gnu"

%"class.icu_77::UnicodeString" = type { %"class.icu_77::Replaceable", %"union.icu_77::UnicodeString::StackBufferOrFields" }
%"class.icu_77::Replaceable" = type { %"class.icu_77::UObject" }
%"class.icu_77::UObject" = type { ptr }
%"union.icu_77::UnicodeString::StackBufferOrFields" = type { %struct.anon.0, [32 x i8] }
%struct.anon.0 = type { i16, i32, i32, ptr }
%"class.icu_77::DateIntervalFormat" = type <{ %"class.icu_77::Format", ptr, ptr, ptr, ptr, %"class.icu_77::Locale", %"class.icu_77::UnicodeString", [9 x %"struct.icu_77::DateIntervalFormat::PatternInfo"], ptr, ptr, ptr, i32, [4 x i8] }>
%"class.icu_77::Format" = type { %"class.icu_77::UObject", ptr, ptr }
%"class.icu_77::Locale" = type <{ %"class.icu_77::UObject", [12 x i8], [6 x i8], [4 x i8], [2 x i8], i32, [4 x i8], ptr, [157 x i8], [3 x i8], ptr, i8, [7 x i8] }>
%"struct.icu_77::DateIntervalFormat::PatternInfo" = type <{ %"class.icu_77::UnicodeString", %"class.icu_77::UnicodeString", i8, [7 x i8] }>

; Function Attrs: mustprogress uwtable
define void @_ZN6icu_7718DateIntervalFormat19setDateIntervalInfoERKNS_16DateIntervalInfoER10UErrorCode(ptr noundef nonnull align 8 dereferenceable(1596) %0, ptr noundef nonnull align 8 dereferenceable(88) %1, ptr noundef nonnull align 4 dereferenceable(4) %2) #1 align 2 personality ptr @__gxx_personality_v0 {
  %4 = alloca ptr, align 8
  %5 = alloca ptr, align 8
  %6 = alloca ptr, align 8
  %7 = alloca ptr, align 8
  %8 = alloca i1, align 1
  %9 = alloca ptr, align 8
  %10 = alloca i32, align 4
  store ptr %0, ptr %4, align 8, !tbaa !39
  store ptr %1, ptr %5, align 8, !tbaa !45
  store ptr %2, ptr %6, align 8, !tbaa !22
  %11 = load ptr, ptr %4, align 8
  %12 = getelementptr inbounds nuw %"class.icu_77::DateIntervalFormat", ptr %11, i32 0, i32 1
  %13 = load ptr, ptr %12, align 8, !tbaa !47
  %14 = icmp eq ptr %13, null
  br i1 %14, label %16, label %15

15:                                               ; preds = %3
  call void @_ZN6icu_7716DateIntervalInfoD1Ev(ptr noundef nonnull align 8 dereferenceable(88) %13) #12
  call void @_ZN6icu_777UMemorydlEPv(ptr noundef %13) #12
  br label %16

16:                                               ; preds = %15, %3
  %17 = call noundef ptr @_ZN6icu_777UMemorynwEm(i64 noundef 88) #12
  %18 = icmp eq ptr %17, null
  store i1 false, ptr %8, align 1
  br i1 %18, label %22, label %19

19:                                               ; preds = %16
  store ptr %17, ptr %7, align 8
  store i1 true, ptr %8, align 1
  %20 = load ptr, ptr %5, align 8, !tbaa !45
  invoke void @_ZN6icu_7716DateIntervalInfoC1ERKS0_(ptr noundef nonnull align 8 dereferenceable(88) %17, ptr noundef nonnull align 8 dereferenceable(88) %20)
          to label %21 unwind label %30

21:                                               ; preds = %19
  br label %22

22:                                               ; preds = %21, %16
  %23 = phi ptr [ %17, %21 ], [ null, %16 ]
  %24 = getelementptr inbounds nuw %"class.icu_77::DateIntervalFormat", ptr %11, i32 0, i32 1
  store ptr %23, ptr %24, align 8, !tbaa !47
  %25 = getelementptr inbounds nuw %"class.icu_77::DateIntervalFormat", ptr %11, i32 0, i32 1
  %26 = load ptr, ptr %25, align 8, !tbaa !47
  %27 = icmp eq ptr %26, null
  br i1 %27, label %28, label %38

28:                                               ; preds = %22
  %29 = load ptr, ptr %6, align 8, !tbaa !22
  store i32 7, ptr %29, align 4, !tbaa !15
  br label %38

30:                                               ; preds = %19
  %31 = landingpad { ptr, i32 }
          cleanup
  %32 = extractvalue { ptr, i32 } %31, 0
  store ptr %32, ptr %9, align 8
  %33 = extractvalue { ptr, i32 } %31, 1
  store i32 %33, ptr %10, align 4
  %34 = load i1, ptr %8, align 1
  br i1 %34, label %35, label %37

35:                                               ; preds = %30
  %36 = load ptr, ptr %7, align 8
  call void @_ZN6icu_777UMemorydlEPv(ptr noundef %36) #12
  br label %37

37:                                               ; preds = %35, %30
  br label %72

38:                                               ; preds = %28, %22
  %39 = getelementptr inbounds nuw %"class.icu_77::DateIntervalFormat", ptr %11, i32 0, i32 8
  %40 = load ptr, ptr %39, align 8, !tbaa !61
  %41 = icmp eq ptr %40, null
  br i1 %41, label %46, label %42

42:                                               ; preds = %38
  %43 = load ptr, ptr %40, align 8, !tbaa !27
  %44 = getelementptr inbounds ptr, ptr %43, i64 1
  %45 = load ptr, ptr %44, align 8
  call void %45(ptr noundef nonnull align 8 dereferenceable(64) %40) #12
  br label %46

46:                                               ; preds = %42, %38
  %47 = getelementptr inbounds nuw %"class.icu_77::DateIntervalFormat", ptr %11, i32 0, i32 8
  store ptr null, ptr %47, align 8, !tbaa !61
  %48 = getelementptr inbounds nuw %"class.icu_77::DateIntervalFormat", ptr %11, i32 0, i32 9
  %49 = load ptr, ptr %48, align 8, !tbaa !62
  %50 = icmp eq ptr %49, null
  br i1 %50, label %55, label %51

51:                                               ; preds = %46
  %52 = load ptr, ptr %49, align 8, !tbaa !27
  %53 = getelementptr inbounds ptr, ptr %52, i64 1
  %54 = load ptr, ptr %53, align 8
  call void %54(ptr noundef nonnull align 8 dereferenceable(64) %49) #12
  br label %55

55:                                               ; preds = %51, %46
  %56 = getelementptr inbounds nuw %"class.icu_77::DateIntervalFormat", ptr %11, i32 0, i32 9
  store ptr null, ptr %56, align 8, !tbaa !62
  %57 = getelementptr inbounds nuw %"class.icu_77::DateIntervalFormat", ptr %11, i32 0, i32 10
  %58 = load ptr, ptr %57, align 8, !tbaa !63
  %59 = icmp eq ptr %58, null
  br i1 %59, label %64, label %60

60:                                               ; preds = %55
  %61 = load ptr, ptr %58, align 8, !tbaa !27
  %62 = getelementptr inbounds ptr, ptr %61, i64 1
  %63 = load ptr, ptr %62, align 8
  call void %63(ptr noundef nonnull align 8 dereferenceable(64) %58) #12
  br label %64

64:                                               ; preds = %60, %55
  %65 = getelementptr inbounds nuw %"class.icu_77::DateIntervalFormat", ptr %11, i32 0, i32 10
  store ptr null, ptr %65, align 8, !tbaa !63
  %66 = getelementptr inbounds nuw %"class.icu_77::DateIntervalFormat", ptr %11, i32 0, i32 2
  %67 = load ptr, ptr %66, align 8, !tbaa !58
  %68 = icmp ne ptr %67, null
  br i1 %68, label %69, label %71

69:                                               ; preds = %64
  %70 = load ptr, ptr %6, align 8, !tbaa !22
  call void @_ZN6icu_7718DateIntervalFormat17initializePatternER10UErrorCode(ptr noundef nonnull align 8 dereferenceable(1596) %11, ptr noundef nonnull align 4 dereferenceable(4) %70)
  br label %71

71:                                               ; preds = %69, %64
  ret void

72:                                               ; preds = %37
  %73 = load ptr, ptr %9, align 8
  %74 = load i32, ptr %10, align 4
  %75 = insertvalue { ptr, i32 } poison, ptr %73, 0
  %76 = insertvalue { ptr, i32 } %75, i32 %74, 1
  resume { ptr, i32 } %76
}