; Function Attrs: mustprogress uwtable
define void @_ZN6icu_7718DateIntervalFormat19setDateIntervalInfoERKNS_16DateIntervalInfoER10UErrorCode(ptr noundef nonnull align 8 dereferenceable(1596) %0, ptr noundef nonnull align 8 dereferenceable(88) %1, ptr noundef nonnull align 4 dereferenceable(4) %2) local_unnamed_addr #1 align 2 personality ptr @__gxx_personality_v0 {
  %4 = getelementptr inbounds nuw i8, ptr %0, i64 24
  %5 = load ptr, ptr %4, align 8, !tbaa !49
  %6 = icmp eq ptr %5, null
  br i1 %6, label %8, label %7

7:                                                ; preds = %3
  tail call void @_ZN6icu_7716DateIntervalInfoD1Ev(ptr noundef nonnull align 8 dereferenceable(88) %5) #19
  tail call void @_ZN6icu_777UMemorydlEPv(ptr noundef nonnull %5) #19
  br label %8

8:                                                ; preds = %7, %3
  %9 = tail call noundef ptr @_ZN6icu_777UMemorynwEm(i64 noundef 88) #19
  %10 = icmp eq ptr %9, null
  br i1 %10, label %13, label %11

11:                                               ; preds = %8
  invoke void @_ZN6icu_7716DateIntervalInfoC1ERKS0_(ptr noundef nonnull align 8 dereferenceable(88) %9, ptr noundef nonnull align 8 dereferenceable(88) %1)
          to label %12 unwind label %14

12:                                               ; preds = %11
  store ptr %9, ptr %4, align 8, !tbaa !49
  br label %16

13:                                               ; preds = %8
  store ptr null, ptr %4, align 8, !tbaa !49
  store i32 7, ptr %2, align 4, !tbaa !13
  br label %16

14:                                               ; preds = %11
  %15 = landingpad { ptr, i32 }
          cleanup
  tail call void @_ZN6icu_777UMemorydlEPv(ptr noundef nonnull %9) #19
  resume { ptr, i32 } %15

16:                                               ; preds = %12, %13
  %17 = getelementptr inbounds nuw i8, ptr %0, i64 1568
  %18 = load ptr, ptr %17, align 8, !tbaa !52
  %19 = icmp eq ptr %18, null
  br i1 %19, label %24, label %20

20:                                               ; preds = %16
  %21 = load ptr, ptr %18, align 8, !tbaa !15
  %22 = getelementptr inbounds nuw i8, ptr %21, i64 8
  %23 = load ptr, ptr %22, align 8
  tail call void %23(ptr noundef nonnull align 8 dereferenceable(64) %18) #19
  br label %24

24:                                               ; preds = %20, %16
  store ptr null, ptr %17, align 8, !tbaa !52
  %25 = getelementptr inbounds nuw i8, ptr %0, i64 1576
  %26 = load ptr, ptr %25, align 8, !tbaa !53
  %27 = icmp eq ptr %26, null
  br i1 %27, label %32, label %28

28:                                               ; preds = %24
  %29 = load ptr, ptr %26, align 8, !tbaa !15
  %30 = getelementptr inbounds nuw i8, ptr %29, i64 8
  %31 = load ptr, ptr %30, align 8
  tail call void %31(ptr noundef nonnull align 8 dereferenceable(64) %26) #19
  br label %32

32:                                               ; preds = %28, %24
  store ptr null, ptr %25, align 8, !tbaa !53
  %33 = getelementptr inbounds nuw i8, ptr %0, i64 1584
  %34 = load ptr, ptr %33, align 8, !tbaa !54
  %35 = icmp eq ptr %34, null
  br i1 %35, label %40, label %36

36:                                               ; preds = %32
  %37 = load ptr, ptr %34, align 8, !tbaa !15
  %38 = getelementptr inbounds nuw i8, ptr %37, i64 8
  %39 = load ptr, ptr %38, align 8
  tail call void %39(ptr noundef nonnull align 8 dereferenceable(64) %34) #19
  br label %40

40:                                               ; preds = %36, %32
  store ptr null, ptr %33, align 8, !tbaa !54
  %41 = getelementptr inbounds nuw i8, ptr %0, i64 32
  %42 = load ptr, ptr %41, align 8, !tbaa !48
  %.not = icmp eq ptr %42, null
  br i1 %.not, label %44, label %43

43:                                               ; preds = %40
  tail call void @_ZN6icu_7718DateIntervalFormat17initializePatternER10UErrorCode(ptr noundef nonnull align 8 dereferenceable(1596) %0, ptr noundef nonnull align 4 dereferenceable(4) %2)
  br label %44

44:                                               ; preds = %43, %40
  ret void
}